target datalayout = "e-m:e-p270:32:32-p271:32:32-p272:64:64-i64:64-i128:128-f80:128-n8:16:32:64-S128"
target triple = "x86_64-pc-linux-gnu"

%struct.ident_t = type { i32, i32, i32, i32, ptr }
%"class.gmx::HashedMap" = type { %"class.std::vector.97", i32, i32, i32, i32 }
%"class.std::vector.97" = type { %"struct.std::_Vector_base.98" }
%"struct.std::_Vector_base.98" = type { %"struct.std::_Vector_base<gmx::HashedMap<int>::hashEntry, std::allocator<gmx::HashedMap<int>::hashEntry>>::_Vector_impl" }
%"struct.std::_Vector_base<gmx::HashedMap<int>::hashEntry, std::allocator<gmx::HashedMap<int>::hashEntry>>::_Vector_impl" = type { %"struct.std::_Vector_base<gmx::HashedMap<int>::hashEntry, std::allocator<gmx::HashedMap<int>::hashEntry>>::_Vector_impl_data" }
%"struct.std::_Vector_base<gmx::HashedMap<int>::hashEntry, std::allocator<gmx::HashedMap<int>::hashEntry>>::_Vector_impl_data" = type { ptr, ptr, ptr }
%"struct.gmx::HashedMap<int>::hashEntry" = type { i32, i32, i32 }

@1 = private unnamed_addr constant %struct.ident_t { i32 0, i32 514, i32 0, i32 22, ptr @0 }, align 8

; Function Attrs: mustprogress nounwind uwtable
define linkonce_odr noundef i64 @_ZNKSt6vectorIN3gmx9HashedMapIiE9hashEntryESaIS3_EE4sizeEv(ptr noundef nonnull align 8 dereferenceable(24) %0) #1 comdat align 2 {
  %2 = alloca ptr, align 8
  store ptr %0, ptr %2, align 8, !tbaa !96
  %3 = load ptr, ptr %2, align 8
  %4 = getelementptr inbounds nuw %"struct.std::_Vector_base.98", ptr %3, i32 0, i32 0
  %5 = getelementptr inbounds nuw %"struct.std::_Vector_base<gmx::HashedMap<int>::hashEntry, std::allocator<gmx::HashedMap<int>::hashEntry>>::_Vector_impl_data", ptr %4, i32 0, i32 1
  %6 = load ptr, ptr %5, align 8, !tbaa !116
  %7 = getelementptr inbounds nuw %"struct.std::_Vector_base.98", ptr %3, i32 0, i32 0
  %8 = getelementptr inbounds nuw %"struct.std::_Vector_base<gmx::HashedMap<int>::hashEntry, std::allocator<gmx::HashedMap<int>::hashEntry>>::_Vector_impl_data", ptr %7, i32 0, i32 0
  %9 = load ptr, ptr %8, align 8, !tbaa !110
  %10 = ptrtoint ptr %6 to i64
  %11 = ptrtoint ptr %9 to i64
  %12 = sub i64 %10, %11
  %13 = sdiv exact i64 %12, 12
  ret i64 %13
}

; Function Attrs: noinline noreturn nounwind uwtable
define linkonce_odr hidden void @__clang_call_terminate(ptr noundef %0) #8 comdat {
  %2 = call ptr @__cxa_begin_catch(ptr %0) #10
  call void @_ZSt9terminatev() #18
  unreachable
}

; Function Attrs: mustprogress nounwind uwtable
define linkonce_odr noundef nonnull align 4 dereferenceable(12) ptr @_ZNSt6vectorIN3gmx9HashedMapIiE9hashEntryESaIS3_EEixEm(ptr noundef nonnull align 8 dereferenceable(24) %0, i64 noundef %1) #1 comdat align 2 {
  %3 = alloca ptr, align 8
  %4 = alloca i64, align 8
  store ptr %0, ptr %3, align 8, !tbaa !96
  store i64 %1, ptr %4, align 8, !tbaa !81
  %5 = load ptr, ptr %3, align 8
  %6 = getelementptr inbounds nuw %"struct.std::_Vector_base.98", ptr %5, i32 0, i32 0
  %7 = getelementptr inbounds nuw %"struct.std::_Vector_base<gmx::HashedMap<int>::hashEntry, std::allocator<gmx::HashedMap<int>::hashEntry>>::_Vector_impl_data", ptr %6, i32 0, i32 0
  %8 = load ptr, ptr %7, align 8, !tbaa !110
  %9 = load i64, ptr %4, align 8, !tbaa !81
  %10 = getelementptr inbounds nuw %"struct.gmx::HashedMap<int>::hashEntry", ptr %8, i64 %9
  ret ptr %10
}

; Function Attrs: mustprogress nounwind uwtable
define linkonce_odr noundef i64 @_ZN3gmx5ssizeISt6vectorINS_9HashedMapIiE9hashEntryESaIS4_EEEElRKT_(ptr noundef nonnull align 8 dereferenceable(24) %0) #1 comdat {
  %2 = alloca ptr, align 8
  store ptr %0, ptr %2, align 8, !tbaa !96
  %3 = load ptr, ptr %2, align 8, !tbaa !96
  %4 = call noundef i64 @_ZNKSt6vectorIN3gmx9HashedMapIiE9hashEntryESaIS3_EE4sizeEv(ptr noundef nonnull align 8 dereferenceable(24) %3) #10
  ret i64 %4
}

; Function Attrs: alwaysinline norecurse nounwind uwtable
define internal void @_ZN3gmx9HashedMapIiE5clearEv.omp_outlined(ptr noalias noundef %0, ptr noalias noundef %1, ptr noundef %2) #9 personality ptr @__gxx_personality_v0 {
  %4 = alloca ptr, align 8
  %5 = alloca ptr, align 8
  %6 = alloca ptr, align 8
  %7 = alloca i64, align 8
  %8 = alloca i64, align 8
  %9 = alloca i64, align 8
  %10 = alloca i64, align 8
  %11 = alloca i64, align 8
  %12 = alloca i64, align 8
  %13 = alloca i64, align 8
  %14 = alloca i32, align 4
  %15 = alloca i64, align 8
  store ptr %0, ptr %4, align 8, !tbaa !55
  store ptr %1, ptr %5, align 8, !tbaa !55
  store ptr %2, ptr %6, align 8, !tbaa !69
  %16 = load ptr, ptr %6, align 8, !tbaa !69
  call void @llvm.lifetime.start.p0(i64 8, ptr %7) #10
  call void @llvm.lifetime.start.p0(i64 8, ptr %8) #10
  %17 = getelementptr inbounds nuw %"class.gmx::HashedMap", ptr %16, i32 0, i32 0
  %18 = invoke noundef i64 @_ZN3gmx5ssizeISt6vectorINS_9HashedMapIiE9hashEntryESaIS4_EEEElRKT_(ptr noundef nonnull align 8 dereferenceable(24) %17)
          to label %19 unwind label %66

19:                                               ; preds = %3
  store i64 %18, ptr %8, align 8, !tbaa !81
  call void @llvm.lifetime.start.p0(i64 8, ptr %9) #10
  %20 = load i64, ptr %8, align 8, !tbaa !81
  %21 = sub nsw i64 %20, 0
  %22 = sdiv i64 %21, 1
  %23 = sub nsw i64 %22, 1
  store i64 %23, ptr %9, align 8, !tbaa !81
  call void @llvm.lifetime.start.p0(i64 8, ptr %10) #10
  store i64 0, ptr %10, align 8, !tbaa !81
  call void @llvm.lifetime.end.p0(i64 8, ptr %10) #10
  %24 = load i64, ptr %8, align 8, !tbaa !81
  %25 = icmp slt i64 0, %24
  br i1 %25, label %26, label %65

26:                                               ; preds = %19
  call void @llvm.lifetime.start.p0(i64 8, ptr %11) #10
  store i64 0, ptr %11, align 8, !tbaa !81
  call void @llvm.lifetime.start.p0(i64 8, ptr %12) #10
  %27 = load i64, ptr %9, align 8, !tbaa !81
  store i64 %27, ptr %12, align 8, !tbaa !81
  call void @llvm.lifetime.start.p0(i64 8, ptr %13) #10
  store i64 1, ptr %13, align 8, !tbaa !81
  call void @llvm.lifetime.start.p0(i64 4, ptr %14) #10
  store i32 0, ptr %14, align 4, !tbaa !78
  call void @llvm.lifetime.start.p0(i64 8, ptr %15) #10
  %28 = load ptr, ptr %4, align 8
  %29 = load i32, ptr %28, align 4, !tbaa !78
  call void @__kmpc_for_static_init_8(ptr @1, i32 %29, i32 34, ptr %14, ptr %11, ptr %12, ptr %13, i64 1, i64 1)
  %30 = load i64, ptr %12, align 8, !tbaa !81
  %31 = load i64, ptr %9, align 8, !tbaa !81
  %32 = icmp sgt i64 %30, %31
  br i1 %32, label %33, label %35

33:                                               ; preds = %26
  %34 = load i64, ptr %9, align 8, !tbaa !81
  br label %37

35:                                               ; preds = %26
  %36 = load i64, ptr %12, align 8, !tbaa !81
  br label %37

37:                                               ; preds = %35, %33
  %38 = phi i64 [ %34, %33 ], [ %36, %35 ]
  store i64 %38, ptr %12, align 8, !tbaa !81
  %39 = load i64, ptr %11, align 8, !tbaa !81
  store i64 %39, ptr %7, align 8, !tbaa !81
  br label %40

40:                                               ; preds = %58, %37
  %41 = load i64, ptr %7, align 8, !tbaa !81
  %42 = load i64, ptr %12, align 8, !tbaa !81
  %43 = icmp sle i64 %41, %42
  br i1 %43, label %45, label %44

44:                                               ; preds = %40
  br label %61

45:                                               ; preds = %40
  %46 = load i64, ptr %7, align 8, !tbaa !81
  %47 = mul nsw i64 %46, 1
  %48 = add nsw i64 0, %47
  store i64 %48, ptr %15, align 8, !tbaa !81
  %49 = getelementptr inbounds nuw %"class.gmx::HashedMap", ptr %16, i32 0, i32 0
  %50 = load i64, ptr %15, align 8, !tbaa !81
  %51 = call noundef nonnull align 4 dereferenceable(12) ptr @_ZNSt6vectorIN3gmx9HashedMapIiE9hashEntryESaIS3_EEixEm(ptr noundef nonnull align 8 dereferenceable(24) %49, i64 noundef %50) #10
  %52 = getelementptr inbounds nuw %"struct.gmx::HashedMap<int>::hashEntry", ptr %51, i32 0, i32 0
  store i32 -1, ptr %52, align 4, !tbaa !99
  %53 = getelementptr inbounds nuw %"class.gmx::HashedMap", ptr %16, i32 0, i32 0
  %54 = load i64, ptr %15, align 8, !tbaa !81
  %55 = call noundef nonnull align 4 dereferenceable(12) ptr @_ZNSt6vectorIN3gmx9HashedMapIiE9hashEntryESaIS3_EEixEm(ptr noundef nonnull align 8 dereferenceable(24) %53, i64 noundef %54) #10
  %56 = getelementptr inbounds nuw %"struct.gmx::HashedMap<int>::hashEntry", ptr %55, i32 0, i32 2
  store i32 -1, ptr %56, align 4, !tbaa !101
  br label %57

57:                                               ; preds = %45
  br label %58

58:                                               ; preds = %57
  %59 = load i64, ptr %7, align 8, !tbaa !81
  %60 = add nsw i64 %59, 1
  store i64 %60, ptr %7, align 8, !tbaa !81
  br label %40

61:                                               ; preds = %44
  br label %62

62:                                               ; preds = %61
  %63 = load ptr, ptr %4, align 8
  %64 = load i32, ptr %63, align 4, !tbaa !78
  call void @__kmpc_for_static_fini(ptr @1, i32 %64)
  call void @llvm.lifetime.end.p0(i64 8, ptr %15) #10
  call void @llvm.lifetime.end.p0(i64 4, ptr %14) #10
  call void @llvm.lifetime.end.p0(i64 8, ptr %13) #10
  call void @llvm.lifetime.end.p0(i64 8, ptr %12) #10
  call void @llvm.lifetime.end.p0(i64 8, ptr %11) #10
  br label %65

65:                                               ; preds = %62, %19
  call void @llvm.lifetime.end.p0(i64 8, ptr %9) #10
  call void @llvm.lifetime.end.p0(i64 8, ptr %8) #10
  call void @llvm.lifetime.end.p0(i64 8, ptr %7) #10
  ret void

66:                                               ; preds = %3
  %67 = landingpad { ptr, i32 }
          catch ptr null
  %68 = extractvalue { ptr, i32 } %67, 0
  call void @__clang_call_terminate(ptr %68) #18
  unreachable
}