; Function Attrs: alwaysinline norecurse nounwind uwtable
define internal void @_ZN3gmx9HashedMapIiE5clearEv.omp_outlined(ptr noalias noundef readonly captures(none) %0, ptr noalias readnone captures(none) %1, ptr noundef readonly captures(none) %2) #8 personality ptr @__gxx_personality_v0 {
  %4 = alloca i64, align 8
  %5 = alloca i64, align 8
  %6 = alloca i64, align 8
  %7 = alloca i32, align 4
  %8 = getelementptr inbounds nuw i8, ptr %2, i64 8
  %9 = load ptr, ptr %8, align 8, !tbaa !39
  %10 = load ptr, ptr %2, align 8, !tbaa !40
  %11 = ptrtoint ptr %9 to i64
  %12 = ptrtoint ptr %10 to i64
  %13 = sub i64 %11, %12
  %14 = icmp sgt i64 %13, 0
  br i1 %14, label %15, label %27

15:                                               ; preds = %3
  %16 = udiv exact i64 %13, 12
  %17 = add nsw i64 %16, -1
  call void @llvm.lifetime.start.p0(i64 8, ptr nonnull %4) #9
  store i64 0, ptr %4, align 8, !tbaa !19
  call void @llvm.lifetime.start.p0(i64 8, ptr nonnull %5) #9
  store i64 %17, ptr %5, align 8, !tbaa !19
  call void @llvm.lifetime.start.p0(i64 8, ptr nonnull %6) #9
  store i64 1, ptr %6, align 8, !tbaa !19
  call void @llvm.lifetime.start.p0(i64 4, ptr nonnull %7) #9
  store i32 0, ptr %7, align 4, !tbaa !41
  %18 = load i32, ptr %0, align 4, !tbaa !41
  call void @__kmpc_for_static_init_8(ptr nonnull @1, i32 %18, i32 34, ptr nonnull %7, ptr nonnull %4, ptr nonnull %5, ptr nonnull %6, i64 1, i64 1)
  %19 = load i64, ptr %5, align 8, !tbaa !19
  %20 = call i64 @llvm.smin.i64(i64 %19, i64 %17)
  store i64 %20, ptr %5, align 8, !tbaa !19
  %21 = load i64, ptr %4, align 8, !tbaa !19
  %.not12 = icmp sgt i64 %21, %20
  br i1 %.not12, label %._crit_edge, label %.lr.ph

.lr.ph:                                           ; preds = %15
  %22 = load ptr, ptr %2, align 8, !tbaa !40
  br label %23

23:                                               ; preds = %.lr.ph, %23
  %.013 = phi i64 [ %21, %.lr.ph ], [ %26, %23 ]
  %24 = getelementptr inbounds nuw %"struct.gmx::HashedMap<int>::hashEntry", ptr %22, i64 %.013
  store i32 -1, ptr %24, align 4, !tbaa !32
  %25 = getelementptr inbounds nuw i8, ptr %24, i64 8
  store i32 -1, ptr %25, align 4, !tbaa !34
  %26 = add i64 %.013, 1
  %exitcond.not = icmp eq i64 %.013, %20
  br i1 %exitcond.not, label %._crit_edge, label %23

._crit_edge:                                      ; preds = %23, %15
  call void @__kmpc_for_static_fini(ptr nonnull @1, i32 %18)
  call void @llvm.lifetime.end.p0(i64 4, ptr nonnull %7) #9
  call void @llvm.lifetime.end.p0(i64 8, ptr nonnull %6) #9
  call void @llvm.lifetime.end.p0(i64 8, ptr nonnull %5) #9
  call void @llvm.lifetime.end.p0(i64 8, ptr nonnull %4) #9
  br label %27

27:                                               ; preds = %._crit_edge, %3
  ret void
}